target datalayout = "e-m:e-p270:32:32-p271:32:32-p272:64:64-i64:64-i128:128-f80:128-n8:16:32:64-S128"
target triple = "x86_64-pc-linux-gnu"

%"class.sat::literal" = type { i32 }
%"class.sat::elim_vars" = type { ptr, ptr, %"class.dd::bdd_manager", %class.random_gen, %class.svector.2, %class.svector.2, i32, %class.svector.2, %class.svector.2, i32, i32, i32, i32 }
%"class.dd::bdd_manager" = type { i32, %class.svector, %class.ptr_hashtable, %class.hashtable, %class.svector.2, %class.svector.2, ptr, %class.svector.2, %class.svector.2, %class.svector.2, %class.svector.2, %class.small_object_allocator, %class.svector.2, i32, %class.svector.4, %class.svector.2, i8, i8, i32, %class.svector.2, %class.svector.2, %class.svector.2, %class.vector.6, %class.svector.2, i32, i32 }
%class.svector = type { %class.vector }
%class.vector = type { ptr }
%class.ptr_hashtable = type { %class.core_hashtable.base, [4 x i8] }
%class.core_hashtable.base = type <{ ptr, i32, i32, i32 }>
%class.hashtable = type { %class.core_hashtable.base.1, [4 x i8] }
%class.core_hashtable.base.1 = type <{ ptr, i32, i32, i32 }>
%class.small_object_allocator = type { [32 x ptr], [32 x ptr], i64 }
%class.svector.4 = type { %class.vector.5 }
%class.vector.5 = type { ptr }
%class.vector.6 = type { ptr }
%class.random_gen = type { i32 }
%class.svector.2 = type { %class.vector.3 }
%class.vector.3 = type { ptr }
%"class.dd::bdd" = type { i32, ptr }

; Function Attrs: mustprogress nounwind uwtable
define linkonce_odr hidden noundef nonnull align 4 dereferenceable(4) ptr @_ZN6vectorIjLb0EjEixEj(ptr noundef nonnull align 8 dereferenceable(8) %0, i32 noundef %1) #5 comdat align 2 {
  %3 = alloca ptr, align 8
  %4 = alloca i32, align 4
  store ptr %0, ptr %3, align 8, !tbaa !237
  store i32 %1, ptr %4, align 4, !tbaa !73
  %5 = load ptr, ptr %3, align 8
  %6 = getelementptr inbounds nuw %class.vector.3, ptr %5, i32 0, i32 0
  %7 = load ptr, ptr %6, align 8, !tbaa !239
  %8 = load i32, ptr %4, align 4, !tbaa !73
  %9 = zext i32 %8 to i64
  %10 = getelementptr inbounds nuw i32, ptr %7, i64 %9
  ret ptr %10
}

; Function Attrs: mustprogress nounwind uwtable
define linkonce_odr hidden noundef i32 @_ZNK3sat7literal3varEv(ptr noundef nonnull align 4 dereferenceable(4) %0) #5 comdat align 2 {
  %2 = alloca ptr, align 8
  store ptr %0, ptr %2, align 8, !tbaa !84
  %3 = load ptr, ptr %2, align 8
  %4 = getelementptr inbounds nuw %"class.sat::literal", ptr %3, i32 0, i32 0
  %5 = load i32, ptr %4, align 4, !tbaa !88
  %6 = lshr i32 %5, 1
  ret i32 %6
}

; Function Attrs: mustprogress nounwind uwtable
define linkonce_odr hidden noundef zeroext i1 @_ZNK3sat7literal4signEv(ptr noundef nonnull align 4 dereferenceable(4) %0) #5 comdat align 2 {
  %2 = alloca ptr, align 8
  store ptr %0, ptr %2, align 8, !tbaa !84
  %3 = load ptr, ptr %2, align 8
  %4 = getelementptr inbounds nuw %"class.sat::literal", ptr %3, i32 0, i32 0
  %5 = load i32, ptr %4, align 4, !tbaa !88
  %6 = zext i32 %5 to i64
  %7 = and i64 %6, 1
  %8 = icmp ne i64 %7, 0
  ret i1 %8
}

; Function Attrs: mustprogress uwtable
define hidden void @_ZN3sat9elim_vars10mk_literalENS_7literalE(ptr dead_on_unwind noalias writable sret(%"class.dd::bdd") align 8 %0, ptr noundef nonnull align 8 dereferenceable(808) %1, i32 %2) #4 align 2 {
  %4 = alloca ptr, align 8
  %5 = alloca %"class.sat::literal", align 4
  %6 = alloca ptr, align 8
  store ptr %0, ptr %4, align 8
  %7 = getelementptr inbounds nuw %"class.sat::literal", ptr %5, i32 0, i32 0
  store i32 %2, ptr %7, align 4
  store ptr %1, ptr %6, align 8, !tbaa !3
  %8 = load ptr, ptr %6, align 8
  %9 = call noundef zeroext i1 @_ZNK3sat7literal4signEv(ptr noundef nonnull align 4 dereferenceable(4) %5)
  br i1 %9, label %10, label %16

10:                                               ; preds = %3
  %11 = getelementptr inbounds nuw %"class.sat::elim_vars", ptr %8, i32 0, i32 2
  %12 = getelementptr inbounds nuw %"class.sat::elim_vars", ptr %8, i32 0, i32 7
  %13 = call noundef i32 @_ZNK3sat7literal3varEv(ptr noundef nonnull align 4 dereferenceable(4) %5)
  %14 = call noundef nonnull align 4 dereferenceable(4) ptr @_ZN6vectorIjLb0EjEixEj(ptr noundef nonnull align 8 dereferenceable(8) %12, i32 noundef %13)
  %15 = load i32, ptr %14, align 4, !tbaa !73
  call void @_ZN2dd11bdd_manager7mk_nvarEj(ptr dead_on_unwind writable sret(%"class.dd::bdd") align 8 %0, ptr noundef nonnull align 8 dereferenceable(728) %11, i32 noundef %15)
  br label %22

16:                                               ; preds = %3
  %17 = getelementptr inbounds nuw %"class.sat::elim_vars", ptr %8, i32 0, i32 2
  %18 = getelementptr inbounds nuw %"class.sat::elim_vars", ptr %8, i32 0, i32 7
  %19 = call noundef i32 @_ZNK3sat7literal3varEv(ptr noundef nonnull align 4 dereferenceable(4) %5)
  %20 = call noundef nonnull align 4 dereferenceable(4) ptr @_ZN6vectorIjLb0EjEixEj(ptr noundef nonnull align 8 dereferenceable(8) %18, i32 noundef %19)
  %21 = load i32, ptr %20, align 4, !tbaa !73
  call void @_ZN2dd11bdd_manager6mk_varEj(ptr dead_on_unwind writable sret(%"class.dd::bdd") align 8 %0, ptr noundef nonnull align 8 dereferenceable(728) %17, i32 noundef %21)
  br label %22

22:                                               ; preds = %16, %10
  ret void
}