; Function Attrs: mustprogress uwtable
define hidden void @_ZN3sat9elim_vars10mk_literalENS_7literalE(ptr dead_on_unwind noalias writable sret(%"class.dd::bdd") align 8 %0, ptr noundef nonnull align 8 dereferenceable(808) %1, i32 %2) local_unnamed_addr #3 align 2 {
  %4 = and i32 %2, 1
  %.not = icmp eq i32 %4, 0
  %5 = getelementptr inbounds nuw i8, ptr %1, i64 16
  %6 = getelementptr inbounds nuw i8, ptr %1, i64 776
  %7 = lshr i32 %2, 1
  %8 = load ptr, ptr %6, align 8, !tbaa !79
  %9 = zext nneg i32 %7 to i64
  %10 = getelementptr inbounds nuw i32, ptr %8, i64 %9
  %11 = load i32, ptr %10, align 4, !tbaa !80
  br i1 %.not, label %13, label %12

12:                                               ; preds = %3
  tail call void @_ZN2dd11bdd_manager7mk_nvarEj(ptr dead_on_unwind writable sret(%"class.dd::bdd") align 8 %0, ptr noundef nonnull align 8 dereferenceable(728) %5, i32 noundef %11)
  br label %14

13:                                               ; preds = %3
  tail call void @_ZN2dd11bdd_manager6mk_varEj(ptr dead_on_unwind writable sret(%"class.dd::bdd") align 8 %0, ptr noundef nonnull align 8 dereferenceable(728) %5, i32 noundef %11)
  br label %14

14:                                               ; preds = %13, %12
  ret void
}